; Function Attrs: mustprogress nounwind uwtable
define hidden void @_ZN22CompilationFailureInfoC2EPKc(ptr noundef nonnull align 8 dereferenceable(52) %0, ptr noundef %1) unnamed_addr #0 align 2 {
  tail call void @_ZN15NativeCallStackC1Ei(ptr noundef nonnull align 8 dereferenceable(32) %0, i32 noundef 2) #3
  %3 = getelementptr inbounds i8, ptr %0, i64 32
  %4 = tail call noundef ptr @_ZN2os6strdupEPKc8MEMFLAGS(ptr noundef %1, i8 noundef zeroext 9) #3
  store ptr %4, ptr %3, align 8
  %5 = getelementptr inbounds i8, ptr %0, i64 40
  %6 = tail call noundef double @_ZN2os11elapsedTimeEv() #3
  store double %6, ptr %5, align 8
  %7 = tail call align 8 ptr @llvm.threadlocal.address.p0(ptr align 8 @_ZN6Thread12_thr_currentE)
  %8 = load ptr, ptr %7, align 8
  %9 = getelementptr inbounds i8, ptr %8, i64 1808
  %10 = load ptr, ptr %9, align 8
  %.not.i = icmp eq ptr %10, null
  br i1 %.not.i, label %_ZN22CompilationFailureInfo23current_compile_id_or_0Ev.exit, label %11

11:                                               ; preds = %2
  %12 = tail call noundef i32 @_ZN5ciEnv10compile_idEv(ptr noundef nonnull align 8 dereferenceable(1265) %10) #3
  br label %_ZN22CompilationFailureInfo23current_compile_id_or_0Ev.exit

_ZN22CompilationFailureInfo23current_compile_id_or_0Ev.exit: ; preds = %2, %11
  %13 = phi i32 [ %12, %11 ], [ 0, %2 ]
  %14 = getelementptr inbounds i8, ptr %0, i64 48
  store i32 %13, ptr %14, align 8
  ret void
}